; Function Attrs: nounwind uwtable
define internal fastcc i32 @key2any_encode(ptr noundef %0, ptr noundef %1, ptr noundef %2, i32 noundef range(i32 6, 1460) %3, ptr noundef %4, ptr noundef readonly captures(address_is_null) %5, ptr noundef readonly captures(address_is_null) %6, ptr noundef %7, ptr noundef %8, ptr noundef %9, ptr noundef %10) unnamed_addr #0 {
  %12 = icmp eq ptr %2, null
  br i1 %12, label %13, label %14

13:                                               ; preds = %11
  tail call void @ERR_new() #5
  tail call void @ERR_set_debug(ptr noundef nonnull @.str, i32 noundef 1140, ptr noundef nonnull @__func__.key2any_encode) #5
  tail call void (i32, i32, ptr, ...) @ERR_set_error(i32 noundef 57, i32 noundef 786690, ptr noundef null) #5
  br label %32

14:                                               ; preds = %11
  %.not = icmp eq ptr %6, null
  br i1 %.not, label %31, label %15

15:                                               ; preds = %14
  %16 = icmp eq ptr %5, null
  br i1 %16, label %19, label %17

17:                                               ; preds = %15
  %18 = tail call i32 %5(ptr noundef nonnull %2, i32 noundef %3) #5, !callees !22
  %.not27 = icmp eq i32 %18, 0
  br i1 %.not27, label %31, label %19

19:                                               ; preds = %17, %15
  %20 = load ptr, ptr %0, align 8, !tbaa !3
  %21 = tail call ptr @ossl_bio_new_from_core_bio(ptr noundef %20, ptr noundef %1) #5
  %.not28 = icmp eq ptr %21, null
  br i1 %.not28, label %29, label %22

22:                                               ; preds = %19
  %23 = icmp eq ptr %7, null
  br i1 %23, label %27, label %24

24:                                               ; preds = %22
  %25 = getelementptr inbounds nuw i8, ptr %0, i64 24
  %26 = tail call i32 @ossl_pw_set_ossl_passphrase_cb(ptr noundef nonnull %25, ptr noundef nonnull %7, ptr noundef %8) #5
  %.not29 = icmp eq i32 %26, 0
  br i1 %.not29, label %29, label %27

27:                                               ; preds = %24, %22
  %28 = tail call i32 %6(ptr noundef nonnull %21, ptr noundef nonnull %2, i32 noundef %3, ptr noundef %4, ptr noundef %9, ptr noundef %10, ptr noundef nonnull %0) #5
  br label %29

29:                                               ; preds = %27, %24, %19
  %.1 = phi i32 [ %28, %27 ], [ 0, %24 ], [ 0, %19 ]
  %30 = tail call i32 @BIO_free(ptr noundef %21) #5
  br label %32

31:                                               ; preds = %17, %14
  tail call void @ERR_new() #5
  tail call void @ERR_set_debug(ptr noundef nonnull @.str, i32 noundef 1153, ptr noundef nonnull @__func__.key2any_encode) #5
  tail call void (i32, i32, ptr, ...) @ERR_set_error(i32 noundef 57, i32 noundef 524550, ptr noundef null) #5
  br label %32

32:                                               ; preds = %29, %31, %13
  %.0 = phi i32 [ 0, %13 ], [ %.1, %29 ], [ 0, %31 ]
  ret i32 %.0
}